target datalayout = "e-m:e-p270:32:32-p271:32:32-p272:64:64-i64:64-i128:128-f80:128-n8:16:32:64-S128"
target triple = "x86_64-unknown-linux-gnu"

%"class.icu_75::AndConstraint" = type <{ ptr, i32, i32, i32, [4 x i8], ptr, i8, i8, [2 x i8], i32, ptr, i32, [4 x i8] }>

@_ZTVN6icu_7513AndConstraintE = unnamed_addr constant { [4 x ptr] } { [4 x ptr] [ptr null, ptr @_ZTIN6icu_7513AndConstraintE, ptr @_ZN6icu_7513AndConstraintD1Ev, ptr @_ZN6icu_7513AndConstraintD0Ev] }, align 8

; Function Attrs: mustprogress nounwind uwtable
define void @_ZN6icu_7513AndConstraintD2Ev(ptr noundef nonnull align 8 dereferenceable(52) %this) unnamed_addr #0 align 2 {
entry:
  %this.addr = alloca ptr, align 8
  store ptr %this, ptr %this.addr, align 8
  %this1 = load ptr, ptr %this.addr, align 8
  store ptr getelementptr inbounds ({ [4 x ptr] }, ptr @_ZTVN6icu_7513AndConstraintE, i32 0, i32 0, i32 2), ptr %this1, align 8
  %rangeList = getelementptr inbounds %"class.icu_75::AndConstraint", ptr %this1, i32 0, i32 5
  %0 = load ptr, ptr %rangeList, align 8
  %isnull = icmp eq ptr %0, null
  br i1 %isnull, label %delete.end, label %delete.notnull

delete.notnull:                                   ; preds = %entry
  %vtable = load ptr, ptr %0, align 8
  %vfn = getelementptr inbounds ptr, ptr %vtable, i64 1
  %1 = load ptr, ptr %vfn, align 8
  call void %1(ptr noundef nonnull align 8 dereferenceable(32) %0) #13
  br label %delete.end

delete.end:                                       ; preds = %delete.notnull, %entry
  %rangeList2 = getelementptr inbounds %"class.icu_75::AndConstraint", ptr %this1, i32 0, i32 5
  store ptr null, ptr %rangeList2, align 8
  %next = getelementptr inbounds %"class.icu_75::AndConstraint", ptr %this1, i32 0, i32 10
  %2 = load ptr, ptr %next, align 8
  %isnull3 = icmp eq ptr %2, null
  br i1 %isnull3, label %delete.end7, label %delete.notnull4

delete.notnull4:                                  ; preds = %delete.end
  %vtable5 = load ptr, ptr %2, align 8
  %vfn6 = getelementptr inbounds ptr, ptr %vtable5, i64 1
  %3 = load ptr, ptr %vfn6, align 8
  call void %3(ptr noundef nonnull align 8 dereferenceable(52) %2) #13
  br label %delete.end7

delete.end7:                                      ; preds = %delete.notnull4, %delete.end
  %next8 = getelementptr inbounds %"class.icu_75::AndConstraint", ptr %this1, i32 0, i32 10
  store ptr null, ptr %next8, align 8
  ret void
}