; Function Attrs: mustprogress nounwind uwtable
define void @_ZN6icu_7513AndConstraintD2Ev(ptr nocapture noundef nonnull align 8 dereferenceable(52) %this) unnamed_addr #0 align 2 {
entry:
  store ptr getelementptr inbounds ({ [4 x ptr] }, ptr @_ZTVN6icu_7513AndConstraintE, i64 0, i32 0, i64 2), ptr %this, align 8
  %rangeList = getelementptr inbounds i8, ptr %this, i64 24
  %0 = load ptr, ptr %rangeList, align 8
  %isnull = icmp eq ptr %0, null
  br i1 %isnull, label %delete.end, label %delete.notnull

delete.notnull:                                   ; preds = %entry
  %vtable = load ptr, ptr %0, align 8
  %vfn = getelementptr inbounds i8, ptr %vtable, i64 8
  %1 = load ptr, ptr %vfn, align 8
  tail call void %1(ptr noundef nonnull align 8 dereferenceable(32) %0) #25
  br label %delete.end

delete.end:                                       ; preds = %delete.notnull, %entry
  store ptr null, ptr %rangeList, align 8
  %next = getelementptr inbounds i8, ptr %this, i64 40
  %2 = load ptr, ptr %next, align 8
  %isnull3 = icmp eq ptr %2, null
  br i1 %isnull3, label %delete.end7, label %delete.notnull4

delete.notnull4:                                  ; preds = %delete.end
  %vtable5 = load ptr, ptr %2, align 8
  %vfn6 = getelementptr inbounds i8, ptr %vtable5, i64 8
  %3 = load ptr, ptr %vfn6, align 8
  tail call void %3(ptr noundef nonnull align 8 dereferenceable(52) %2) #25
  br label %delete.end7

delete.end7:                                      ; preds = %delete.notnull4, %delete.end
  store ptr null, ptr %next, align 8
  ret void
}